target datalayout = "e-m:e-p270:32:32-p271:32:32-p272:64:64-i64:64-i128:128-f80:128-n8:16:32:64-S128"
target triple = "x86_64-pc-linux-gnu"

%"class.std::vector" = type { %"struct.std::_Vector_base" }
%"struct.std::_Vector_base" = type { %"struct.std::_Vector_base<int, std::allocator<int>>::_Vector_impl" }
%"struct.std::_Vector_base<int, std::allocator<int>>::_Vector_impl" = type { %"struct.std::_Vector_base<int, std::allocator<int>>::_Vector_impl_data" }
%"struct.std::_Vector_base<int, std::allocator<int>>::_Vector_impl_data" = type { ptr, ptr, ptr }
%"struct.Yosys::RTLIL::IdString" = type { i32 }
%"struct.Yosys::DriveBitWire" = type <{ ptr, i32, [4 x i8] }>
%"struct.Yosys::DriveBit" = type { i8, %union.anon }
%union.anon = type { %"struct.Yosys::DriveBitPort", [40 x i8] }
%"struct.Yosys::DriveBitPort" = type { ptr, %"struct.Yosys::RTLIL::IdString", i32 }
%"struct.Yosys::DriveChunkMultiple" = type { %"class.Yosys::hashlib::pool.6", i32, [4 x i8] }
%"class.Yosys::hashlib::pool.6" = type <{ %"class.std::vector", %"class.std::vector.7", [8 x i8] }>
%"class.std::vector.7" = type { %"struct.std::_Vector_base.8" }
%"struct.std::_Vector_base.8" = type { %"struct.std::_Vector_base<Yosys::hashlib::pool<Yosys::DriveChunk>::entry_t, std::allocator<Yosys::hashlib::pool<Yosys::DriveChunk>::entry_t>>::_Vector_impl" }
%"struct.std::_Vector_base<Yosys::hashlib::pool<Yosys::DriveChunk>::entry_t, std::allocator<Yosys::hashlib::pool<Yosys::DriveChunk>::entry_t>>::_Vector_impl" = type { %"struct.std::_Vector_base<Yosys::hashlib::pool<Yosys::DriveChunk>::entry_t, std::allocator<Yosys::hashlib::pool<Yosys::DriveChunk>::entry_t>>::_Vector_impl_data" }
%"struct.std::_Vector_base<Yosys::hashlib::pool<Yosys::DriveChunk>::entry_t, std::allocator<Yosys::hashlib::pool<Yosys::DriveChunk>::entry_t>>::_Vector_impl_data" = type { ptr, ptr, ptr }
%"struct.Yosys::DriveChunk" = type { i8, %union.anon.13 }
%union.anon.13 = type { %"struct.Yosys::RTLIL::Const", [24 x i8] }
%"struct.Yosys::RTLIL::Const" = type { i16, i8, %union.anon.14 }
%union.anon.14 = type { %"class.std::__cxx11::basic_string" }
%"class.std::__cxx11::basic_string" = type { %"struct.std::__cxx11::basic_string<char>::_Alloc_hider", i64, %union.anon.23 }
%"struct.std::__cxx11::basic_string<char>::_Alloc_hider" = type { ptr }
%union.anon.23 = type { i64, [8 x i8] }
%"struct.Yosys::DriveChunkWire" = type { ptr, i32, i32 }
%"struct.Yosys::DriveChunkPort" = type <{ ptr, %"struct.Yosys::RTLIL::IdString", i32, i32, [4 x i8] }>
%"struct.Yosys::DriveChunkMarker" = type { i32, i32, i32 }

@.str = private unnamed_addr constant [17 x i8] c"Abort in %s:%d.\0A\00", align 1
@.str.1 = private unnamed_addr constant [22 x i8] c"kernel/drivertools.cc\00", align 1
@.str.20 = private unnamed_addr constant [23 x i8] c"./kernel/drivertools.h\00", align 1

; Function Attrs: inlinehint mustprogress nounwind uwtable
define linkonce_odr noundef zeroext i1 @_ZNK5Yosys5RTLIL8IdStringeqERKS1_(ptr noundef nonnull align 4 dereferenceable(4) %0, ptr noundef nonnull align 4 dereferenceable(4) %1) #5 comdat align 2 {
  %3 = alloca ptr, align 8
  %4 = alloca ptr, align 8
  store ptr %0, ptr %3, align 8, !tbaa !68
  store ptr %1, ptr %4, align 8, !tbaa !68
  %5 = load ptr, ptr %3, align 8
  %6 = getelementptr inbounds nuw %"struct.Yosys::RTLIL::IdString", ptr %5, i32 0, i32 0
  %7 = load i32, ptr %6, align 4, !tbaa !70
  %8 = load ptr, ptr %4, align 8, !tbaa !68
  %9 = getelementptr inbounds nuw %"struct.Yosys::RTLIL::IdString", ptr %8, i32 0, i32 0
  %10 = load i32, ptr %9, align 4, !tbaa !70
  %11 = icmp eq i32 %7, %10
  ret i1 %11
}

; Function Attrs: mustprogress nounwind uwtable
define linkonce_odr noundef i32 @_ZNK5Yosys18DriveChunkMultiple4sizeEv(ptr noundef nonnull align 8 dereferenceable(60) %0) #7 comdat align 2 {
  %2 = alloca ptr, align 8
  store ptr %0, ptr %2, align 8, !tbaa !35
  %3 = load ptr, ptr %2, align 8
  %4 = getelementptr inbounds nuw %"struct.Yosys::DriveChunkMultiple", ptr %3, i32 0, i32 1
  %5 = load i32, ptr %4, align 8, !tbaa !94
  ret i32 %5
}

; Function Attrs: mustprogress nounwind uwtable
define linkonce_odr noundef i32 @_ZNK5Yosys16DriveChunkMarker4sizeEv(ptr noundef nonnull align 4 dereferenceable(12) %0) #7 comdat align 2 {
  %2 = alloca ptr, align 8
  store ptr %0, ptr %2, align 8, !tbaa !71
  %3 = load ptr, ptr %2, align 8
  %4 = getelementptr inbounds nuw %"struct.Yosys::DriveChunkMarker", ptr %3, i32 0, i32 2
  %5 = load i32, ptr %4, align 4, !tbaa !81
  ret i32 %5
}

; Function Attrs: mustprogress nounwind uwtable
define linkonce_odr noundef i32 @_ZNK5Yosys14DriveChunkPort4sizeEv(ptr noundef nonnull align 8 dereferenceable(20) %0) #7 comdat align 2 {
  %2 = alloca ptr, align 8
  store ptr %0, ptr %2, align 8, !tbaa !55
  %3 = load ptr, ptr %2, align 8
  %4 = getelementptr inbounds nuw %"struct.Yosys::DriveChunkPort", ptr %3, i32 0, i32 3
  %5 = load i32, ptr %4, align 8, !tbaa !67
  ret i32 %5
}

; Function Attrs: mustprogress nounwind uwtable
define linkonce_odr noundef i32 @_ZNK5Yosys14DriveChunkWire4sizeEv(ptr noundef nonnull align 8 dereferenceable(16) %0) #7 comdat align 2 {
  %2 = alloca ptr, align 8
  store ptr %0, ptr %2, align 8, !tbaa !49
  %3 = load ptr, ptr %2, align 8
  %4 = getelementptr inbounds nuw %"struct.Yosys::DriveChunkWire", ptr %3, i32 0, i32 2
  %5 = load i32, ptr %4, align 4, !tbaa !54
  ret i32 %5
}

; Function Attrs: mustprogress nounwind uwtable
define linkonce_odr noundef nonnull align 8 dereferenceable(56) ptr @_ZNK5Yosys8DriveBit8multipleEv(ptr noundef nonnull align 8 dereferenceable(64) %0) #7 comdat align 2 {
  %2 = alloca ptr, align 8
  store ptr %0, ptr %2, align 8, !tbaa !6
  %3 = load ptr, ptr %2, align 8
  br label %4

4:                                                ; preds = %1
  br label %5

5:                                                ; preds = %4
  %6 = getelementptr inbounds nuw %"struct.Yosys::DriveBit", ptr %3, i32 0, i32 1
  ret ptr %6
}

; Function Attrs: mustprogress uwtable
define noundef zeroext i1 @_ZNK5Yosys14DriveChunkPort10can_appendERKNS_12DriveBitPortE(ptr noundef nonnull align 8 dereferenceable(20) %0, ptr noundef nonnull align 8 dereferenceable(16) %1) #4 align 2 {
  %3 = alloca ptr, align 8
  %4 = alloca ptr, align 8
  store ptr %0, ptr %3, align 8, !tbaa !55
  store ptr %1, ptr %4, align 8, !tbaa !57
  %5 = load ptr, ptr %3, align 8
  %6 = load ptr, ptr %4, align 8, !tbaa !57
  %7 = getelementptr inbounds nuw %"struct.Yosys::DriveBitPort", ptr %6, i32 0, i32 0
  %8 = load ptr, ptr %7, align 8, !tbaa !59
  %9 = getelementptr inbounds nuw %"struct.Yosys::DriveChunkPort", ptr %5, i32 0, i32 0
  %10 = load ptr, ptr %9, align 8, !tbaa !63
  %11 = icmp eq ptr %8, %10
  br i1 %11, label %12, label %27

12:                                               ; preds = %2
  %13 = load ptr, ptr %4, align 8, !tbaa !57
  %14 = getelementptr inbounds nuw %"struct.Yosys::DriveBitPort", ptr %13, i32 0, i32 1
  %15 = getelementptr inbounds nuw %"struct.Yosys::DriveChunkPort", ptr %5, i32 0, i32 1
  %16 = call noundef zeroext i1 @_ZNK5Yosys5RTLIL8IdStringeqERKS1_(ptr noundef nonnull align 4 dereferenceable(4) %14, ptr noundef nonnull align 4 dereferenceable(4) %15)
  br i1 %16, label %17, label %27

17:                                               ; preds = %12
  %18 = load ptr, ptr %4, align 8, !tbaa !57
  %19 = getelementptr inbounds nuw %"struct.Yosys::DriveBitPort", ptr %18, i32 0, i32 2
  %20 = load i32, ptr %19, align 4, !tbaa !65
  %21 = getelementptr inbounds nuw %"struct.Yosys::DriveChunkPort", ptr %5, i32 0, i32 2
  %22 = load i32, ptr %21, align 4, !tbaa !66
  %23 = getelementptr inbounds nuw %"struct.Yosys::DriveChunkPort", ptr %5, i32 0, i32 3
  %24 = load i32, ptr %23, align 8, !tbaa !67
  %25 = add nsw i32 %22, %24
  %26 = icmp eq i32 %20, %25
  br label %27

27:                                               ; preds = %17, %12, %2
  %28 = phi i1 [ false, %12 ], [ false, %2 ], [ %26, %17 ]
  ret i1 %28
}

; Function Attrs: mustprogress nounwind uwtable
define linkonce_odr noundef nonnull align 8 dereferenceable(16) ptr @_ZNK5Yosys8DriveBit4portEv(ptr noundef nonnull align 8 dereferenceable(64) %0) #7 comdat align 2 {
  %2 = alloca ptr, align 8
  store ptr %0, ptr %2, align 8, !tbaa !6
  %3 = load ptr, ptr %2, align 8
  br label %4

4:                                                ; preds = %1
  br label %5

5:                                                ; preds = %4
  %6 = getelementptr inbounds nuw %"struct.Yosys::DriveBit", ptr %3, i32 0, i32 1
  ret ptr %6
}

; Function Attrs: mustprogress nounwind uwtable
define noundef zeroext i1 @_ZNK5Yosys14DriveChunkWire10can_appendERKNS_12DriveBitWireE(ptr noundef nonnull align 8 dereferenceable(16) %0, ptr noundef nonnull align 8 dereferenceable(12) %1) #7 align 2 {
  %3 = alloca ptr, align 8
  %4 = alloca ptr, align 8
  store ptr %0, ptr %3, align 8, !tbaa !49
  store ptr %1, ptr %4, align 8, !tbaa !20
  %5 = load ptr, ptr %3, align 8
  %6 = load ptr, ptr %4, align 8, !tbaa !20
  %7 = getelementptr inbounds nuw %"struct.Yosys::DriveBitWire", ptr %6, i32 0, i32 0
  %8 = load ptr, ptr %7, align 8, !tbaa !25
  %9 = getelementptr inbounds nuw %"struct.Yosys::DriveChunkWire", ptr %5, i32 0, i32 0
  %10 = load ptr, ptr %9, align 8, !tbaa !51
  %11 = icmp eq ptr %8, %10
  br i1 %11, label %12, label %22

12:                                               ; preds = %2
  %13 = load ptr, ptr %4, align 8, !tbaa !20
  %14 = getelementptr inbounds nuw %"struct.Yosys::DriveBitWire", ptr %13, i32 0, i32 1
  %15 = load i32, ptr %14, align 8, !tbaa !27
  %16 = getelementptr inbounds nuw %"struct.Yosys::DriveChunkWire", ptr %5, i32 0, i32 1
  %17 = load i32, ptr %16, align 8, !tbaa !53
  %18 = getelementptr inbounds nuw %"struct.Yosys::DriveChunkWire", ptr %5, i32 0, i32 2
  %19 = load i32, ptr %18, align 4, !tbaa !54
  %20 = add nsw i32 %17, %19
  %21 = icmp eq i32 %15, %20
  br label %22

22:                                               ; preds = %12, %2
  %23 = phi i1 [ false, %2 ], [ %21, %12 ]
  ret i1 %23
}

; Function Attrs: mustprogress nounwind uwtable
define linkonce_odr noundef nonnull align 8 dereferenceable(12) ptr @_ZNK5Yosys8DriveBit4wireEv(ptr noundef nonnull align 8 dereferenceable(64) %0) #7 comdat align 2 {
  %2 = alloca ptr, align 8
  store ptr %0, ptr %2, align 8, !tbaa !6
  %3 = load ptr, ptr %2, align 8
  br label %4

4:                                                ; preds = %1
  br label %5

5:                                                ; preds = %4
  %6 = getelementptr inbounds nuw %"struct.Yosys::DriveBit", ptr %3, i32 0, i32 1
  ret ptr %6
}

; Function Attrs: mustprogress nounwind uwtable
define linkonce_odr noundef zeroext i8 @_ZNK5Yosys8DriveBit4typeEv(ptr noundef nonnull align 8 dereferenceable(64) %0) #7 comdat align 2 {
  %2 = alloca ptr, align 8
  store ptr %0, ptr %2, align 8, !tbaa !6
  %3 = load ptr, ptr %2, align 8
  %4 = getelementptr inbounds nuw %"struct.Yosys::DriveBit", ptr %3, i32 0, i32 0
  %5 = load i8, ptr %4, align 8, !tbaa !13
  ret i8 %5
}

; Function Attrs: mustprogress uwtable
define linkonce_odr noundef i32 @_ZNK5Yosys10DriveChunk4sizeEv(ptr noundef nonnull align 8 dereferenceable(72) %0) #4 comdat align 2 {
  %2 = alloca i32, align 4
  %3 = alloca ptr, align 8
  store ptr %0, ptr %3, align 8, !tbaa !39
  %4 = load ptr, ptr %3, align 8
  %5 = getelementptr inbounds nuw %"struct.Yosys::DriveChunk", ptr %4, i32 0, i32 0
  %6 = load i8, ptr %5, align 8, !tbaa !46
  switch i8 %6, label %25 [
    i8 0, label %7
    i8 1, label %10
    i8 2, label %13
    i8 3, label %16
    i8 5, label %19
    i8 4, label %22
  ]

7:                                                ; preds = %1
  %8 = getelementptr inbounds nuw %"struct.Yosys::DriveChunk", ptr %4, i32 0, i32 1
  %9 = load i32, ptr %8, align 8, !tbaa !19
  store i32 %9, ptr %2, align 4
  br label %26

10:                                               ; preds = %1
  %11 = getelementptr inbounds nuw %"struct.Yosys::DriveChunk", ptr %4, i32 0, i32 1
  %12 = call noundef i32 @_ZNK5Yosys5RTLIL5Const4sizeEv(ptr noundef nonnull align 8 dereferenceable(40) %11)
  store i32 %12, ptr %2, align 4
  br label %26

13:                                               ; preds = %1
  %14 = getelementptr inbounds nuw %"struct.Yosys::DriveChunk", ptr %4, i32 0, i32 1
  %15 = call noundef i32 @_ZNK5Yosys14DriveChunkWire4sizeEv(ptr noundef nonnull align 8 dereferenceable(16) %14)
  store i32 %15, ptr %2, align 4
  br label %26

16:                                               ; preds = %1
  %17 = getelementptr inbounds nuw %"struct.Yosys::DriveChunk", ptr %4, i32 0, i32 1
  %18 = call noundef i32 @_ZNK5Yosys14DriveChunkPort4sizeEv(ptr noundef nonnull align 8 dereferenceable(20) %17)
  store i32 %18, ptr %2, align 4
  br label %26

19:                                               ; preds = %1
  %20 = getelementptr inbounds nuw %"struct.Yosys::DriveChunk", ptr %4, i32 0, i32 1
  %21 = call noundef i32 @_ZNK5Yosys16DriveChunkMarker4sizeEv(ptr noundef nonnull align 4 dereferenceable(12) %20)
  store i32 %21, ptr %2, align 4
  br label %26

22:                                               ; preds = %1
  %23 = getelementptr inbounds nuw %"struct.Yosys::DriveChunk", ptr %4, i32 0, i32 1
  %24 = call noundef i32 @_ZNK5Yosys18DriveChunkMultiple4sizeEv(ptr noundef nonnull align 8 dereferenceable(60) %23)
  store i32 %24, ptr %2, align 4
  br label %26

25:                                               ; preds = %1
  call void (ptr, ...) @_ZN5Yosys9log_errorEPKcz(ptr noundef @.str, ptr noundef @.str.20, i32 noundef 956) #20
  unreachable

26:                                               ; preds = %22, %19, %16, %13, %10, %7
  %27 = load i32, ptr %2, align 4
  ret i32 %27
}

; Function Attrs: mustprogress uwtable
define noundef zeroext i1 @_ZNK5Yosys10DriveChunk10can_appendERKNS_8DriveBitE(ptr noundef nonnull align 8 dereferenceable(72) %0, ptr noundef nonnull align 8 dereferenceable(64) %1) #4 align 2 {
  %3 = alloca i1, align 1
  %4 = alloca ptr, align 8
  %5 = alloca ptr, align 8
  store ptr %0, ptr %4, align 8, !tbaa !39
  store ptr %1, ptr %5, align 8, !tbaa !6
  %6 = load ptr, ptr %4, align 8
  %7 = call noundef i32 @_ZNK5Yosys10DriveChunk4sizeEv(ptr noundef nonnull align 8 dereferenceable(72) %6)
  %8 = icmp eq i32 %7, 0
  br i1 %8, label %9, label %10

9:                                                ; preds = %2
  store i1 true, ptr %3, align 1
  br label %38

10:                                               ; preds = %2
  %11 = load ptr, ptr %5, align 8, !tbaa !6
  %12 = call noundef zeroext i8 @_ZNK5Yosys8DriveBit4typeEv(ptr noundef nonnull align 8 dereferenceable(64) %11)
  %13 = getelementptr inbounds nuw %"struct.Yosys::DriveChunk", ptr %6, i32 0, i32 0
  %14 = load i8, ptr %13, align 8, !tbaa !46
  %15 = icmp ne i8 %12, %14
  br i1 %15, label %16, label %17

16:                                               ; preds = %10
  store i1 false, ptr %3, align 1
  br label %38

17:                                               ; preds = %10
  %18 = getelementptr inbounds nuw %"struct.Yosys::DriveChunk", ptr %6, i32 0, i32 0
  %19 = load i8, ptr %18, align 8, !tbaa !46
  switch i8 %19, label %37 [
    i8 0, label %20
    i8 1, label %21
    i8 2, label %22
    i8 3, label %27
    i8 4, label %32
  ]

20:                                               ; preds = %17
  store i1 true, ptr %3, align 1
  br label %38

21:                                               ; preds = %17
  store i1 true, ptr %3, align 1
  br label %38

22:                                               ; preds = %17
  %23 = getelementptr inbounds nuw %"struct.Yosys::DriveChunk", ptr %6, i32 0, i32 1
  %24 = load ptr, ptr %5, align 8, !tbaa !6
  %25 = call noundef nonnull align 8 dereferenceable(12) ptr @_ZNK5Yosys8DriveBit4wireEv(ptr noundef nonnull align 8 dereferenceable(64) %24)
  %26 = call noundef zeroext i1 @_ZNK5Yosys14DriveChunkWire10can_appendERKNS_12DriveBitWireE(ptr noundef nonnull align 8 dereferenceable(16) %23, ptr noundef nonnull align 8 dereferenceable(12) %25)
  store i1 %26, ptr %3, align 1
  br label %38

27:                                               ; preds = %17
  %28 = getelementptr inbounds nuw %"struct.Yosys::DriveChunk", ptr %6, i32 0, i32 1
  %29 = load ptr, ptr %5, align 8, !tbaa !6
  %30 = call noundef nonnull align 8 dereferenceable(16) ptr @_ZNK5Yosys8DriveBit4portEv(ptr noundef nonnull align 8 dereferenceable(64) %29)
  %31 = call noundef zeroext i1 @_ZNK5Yosys14DriveChunkPort10can_appendERKNS_12DriveBitPortE(ptr noundef nonnull align 8 dereferenceable(20) %28, ptr noundef nonnull align 8 dereferenceable(16) %30)
  store i1 %31, ptr %3, align 1
  br label %38

32:                                               ; preds = %17
  %33 = getelementptr inbounds nuw %"struct.Yosys::DriveChunk", ptr %6, i32 0, i32 1
  %34 = load ptr, ptr %5, align 8, !tbaa !6
  %35 = call noundef nonnull align 8 dereferenceable(56) ptr @_ZNK5Yosys8DriveBit8multipleEv(ptr noundef nonnull align 8 dereferenceable(64) %34)
  %36 = call noundef zeroext i1 @_ZNK5Yosys18DriveChunkMultiple10can_appendERKNS_16DriveBitMultipleE(ptr noundef nonnull align 8 dereferenceable(60) %33, ptr noundef nonnull align 8 dereferenceable(56) %35)
  store i1 %36, ptr %3, align 1
  br label %38

37:                                               ; preds = %17
  call void (ptr, ...) @_ZN5Yosys9log_errorEPKcz(ptr noundef @.str, ptr noundef @.str.1, i32 noundef 336) #20
  unreachable

38:                                               ; preds = %32, %27, %22, %21, %20, %16, %9
  %39 = load i1, ptr %3, align 1
  ret i1 %39
}