; Function Attrs: mustprogress uwtable
define noundef zeroext i1 @_ZNK5Yosys10DriveChunk10can_appendERKNS_8DriveBitE(ptr noundef nonnull align 8 dereferenceable(72) %0, ptr noundef nonnull align 8 dereferenceable(64) %1) local_unnamed_addr #5 align 2 {
  %3 = load i8, ptr %0, align 8, !tbaa !51
  switch i8 %3, label %22 [
    i8 0, label %4
    i8 1, label %7
    i8 2, label %10
    i8 3, label %13
    i8 5, label %16
    i8 4, label %19
  ]

4:                                                ; preds = %2
  %5 = getelementptr inbounds nuw i8, ptr %0, i64 8
  %6 = load i32, ptr %5, align 8, !tbaa !15
  br label %_ZNK5Yosys10DriveChunk4sizeEv.exit

7:                                                ; preds = %2
  %8 = getelementptr inbounds nuw i8, ptr %0, i64 8
  %9 = tail call noundef i32 @_ZNK5Yosys5RTLIL5Const4sizeEv(ptr noundef nonnull align 8 dereferenceable(40) %8)
  br label %_ZNK5Yosys10DriveChunk4sizeEv.exit

10:                                               ; preds = %2
  %11 = getelementptr inbounds nuw i8, ptr %0, i64 20
  %12 = load i32, ptr %11, align 4, !tbaa !77
  br label %_ZNK5Yosys10DriveChunk4sizeEv.exit

13:                                               ; preds = %2
  %14 = getelementptr inbounds nuw i8, ptr %0, i64 24
  %15 = load i32, ptr %14, align 8, !tbaa !78
  br label %_ZNK5Yosys10DriveChunk4sizeEv.exit

16:                                               ; preds = %2
  %17 = getelementptr inbounds nuw i8, ptr %0, i64 16
  %18 = load i32, ptr %17, align 8, !tbaa !82
  br label %_ZNK5Yosys10DriveChunk4sizeEv.exit

19:                                               ; preds = %2
  %20 = getelementptr inbounds nuw i8, ptr %0, i64 64
  %21 = load i32, ptr %20, align 8, !tbaa !88
  br label %_ZNK5Yosys10DriveChunk4sizeEv.exit

22:                                               ; preds = %2
  tail call void (ptr, ...) @_ZN5Yosys9log_errorEPKcz(ptr noundef nonnull @.str, ptr noundef nonnull @.str.20, i32 noundef 956) #31
  unreachable

_ZNK5Yosys10DriveChunk4sizeEv.exit:               ; preds = %4, %7, %10, %13, %16, %19
  %.0.i = phi i32 [ %21, %19 ], [ %18, %16 ], [ %15, %13 ], [ %12, %10 ], [ %9, %7 ], [ %6, %4 ]
  %23 = icmp eq i32 %.0.i, 0
  br i1 %23, label %_ZNK5Yosys14DriveChunkWire10can_appendERKNS_12DriveBitWireE.exit, label %24

24:                                               ; preds = %_ZNK5Yosys10DriveChunk4sizeEv.exit
  %25 = load i8, ptr %1, align 8, !tbaa !6
  %26 = load i8, ptr %0, align 8, !tbaa !51
  %.not = icmp eq i8 %25, %26
  br i1 %.not, label %27, label %_ZNK5Yosys14DriveChunkWire10can_appendERKNS_12DriveBitWireE.exit

27:                                               ; preds = %24
  switch i8 %25, label %68 [
    i8 0, label %_ZNK5Yosys14DriveChunkWire10can_appendERKNS_12DriveBitWireE.exit
    i8 1, label %_ZNK5Yosys14DriveChunkWire10can_appendERKNS_12DriveBitWireE.exit
    i8 2, label %28
    i8 3, label %43
    i8 4, label %64
  ]

28:                                               ; preds = %27
  %29 = getelementptr inbounds nuw i8, ptr %0, i64 8
  %30 = getelementptr inbounds nuw i8, ptr %1, i64 8
  %31 = load ptr, ptr %30, align 8, !tbaa !74
  %32 = load ptr, ptr %29, align 8, !tbaa !58
  %33 = icmp eq ptr %31, %32
  br i1 %33, label %34, label %_ZNK5Yosys14DriveChunkWire10can_appendERKNS_12DriveBitWireE.exit

34:                                               ; preds = %28
  %35 = getelementptr inbounds nuw i8, ptr %1, i64 16
  %36 = load i32, ptr %35, align 8, !tbaa !76
  %37 = getelementptr inbounds nuw i8, ptr %0, i64 16
  %38 = load i32, ptr %37, align 8, !tbaa !60
  %39 = getelementptr inbounds nuw i8, ptr %0, i64 20
  %40 = load i32, ptr %39, align 4, !tbaa !77
  %41 = add nsw i32 %40, %38
  %42 = icmp eq i32 %36, %41
  br label %_ZNK5Yosys14DriveChunkWire10can_appendERKNS_12DriveBitWireE.exit

43:                                               ; preds = %27
  %44 = getelementptr inbounds nuw i8, ptr %0, i64 8
  %45 = getelementptr inbounds nuw i8, ptr %1, i64 8
  %46 = load ptr, ptr %45, align 8, !tbaa !35
  %47 = load ptr, ptr %44, align 8, !tbaa !61
  %48 = icmp eq ptr %46, %47
  br i1 %48, label %49, label %_ZNK5Yosys14DriveChunkWire10can_appendERKNS_12DriveBitWireE.exit

49:                                               ; preds = %43
  %50 = getelementptr inbounds nuw i8, ptr %1, i64 16
  %51 = getelementptr inbounds nuw i8, ptr %0, i64 16
  %52 = load i32, ptr %50, align 8, !tbaa !39
  %53 = load i32, ptr %51, align 8, !tbaa !39
  %54 = icmp eq i32 %52, %53
  br i1 %54, label %55, label %_ZNK5Yosys14DriveChunkWire10can_appendERKNS_12DriveBitWireE.exit

55:                                               ; preds = %49
  %56 = getelementptr inbounds nuw i8, ptr %1, i64 20
  %57 = load i32, ptr %56, align 4, !tbaa !40
  %58 = getelementptr inbounds nuw i8, ptr %0, i64 20
  %59 = load i32, ptr %58, align 4, !tbaa !66
  %60 = getelementptr inbounds nuw i8, ptr %0, i64 24
  %61 = load i32, ptr %60, align 8, !tbaa !78
  %62 = add nsw i32 %61, %59
  %63 = icmp eq i32 %57, %62
  br label %_ZNK5Yosys14DriveChunkWire10can_appendERKNS_12DriveBitWireE.exit

64:                                               ; preds = %27
  %65 = getelementptr inbounds nuw i8, ptr %0, i64 8
  %66 = getelementptr inbounds nuw i8, ptr %1, i64 8
  %67 = tail call noundef zeroext i1 @_ZNK5Yosys18DriveChunkMultiple10can_appendERKNS_16DriveBitMultipleE(ptr noundef nonnull align 8 dereferenceable(60) %65, ptr noundef nonnull align 8 dereferenceable(56) %66)
  br label %_ZNK5Yosys14DriveChunkWire10can_appendERKNS_12DriveBitWireE.exit

68:                                               ; preds = %27
  tail call void (ptr, ...) @_ZN5Yosys9log_errorEPKcz(ptr noundef nonnull @.str, ptr noundef nonnull @.str.1, i32 noundef 336) #31
  unreachable

_ZNK5Yosys14DriveChunkWire10can_appendERKNS_12DriveBitWireE.exit: ; preds = %55, %49, %43, %34, %28, %27, %27, %24, %_ZNK5Yosys10DriveChunk4sizeEv.exit, %64
  %.0 = phi i1 [ %67, %64 ], [ true, %_ZNK5Yosys10DriveChunk4sizeEv.exit ], [ false, %24 ], [ true, %27 ], [ true, %27 ], [ false, %28 ], [ %42, %34 ], [ false, %49 ], [ false, %43 ], [ %63, %55 ]
  ret i1 %.0
}